; Function Attrs: mustprogress ssp uwtable
define noundef zeroext i1 @_ZN6open3d2io34ReadIJsonConvertibleFromJSONStringERKNSt7__cxx1112basic_stringIcSt11char_traitsIcESaIcEEERNS_7utility16IJsonConvertibleE(ptr noundef nonnull align 8 dereferenceable(32) %0, ptr noundef nonnull align 8 dereferenceable(8) %1) local_unnamed_addr #1 personality ptr @__gxx_personality_v0 {
  %3 = alloca %"class.std::__cxx11::basic_istringstream", align 8
  call void @llvm.lifetime.start.p0(i64 384, ptr nonnull %3) #27
  call void @_ZNSt7__cxx1119basic_istringstreamIcSt11char_traitsIcESaIcEEC1ERKNS_12basic_stringIcS2_S3_EESt13_Ios_Openmode(ptr noundef nonnull align 8 dereferenceable(120) %3, ptr noundef nonnull align 8 dereferenceable(32) %0, i32 noundef 8)
  %4 = invoke fastcc noundef zeroext i1 @_ZN6open3d12_GLOBAL__N_134ReadIJsonConvertibleFromJSONStreamERSiRNS_7utility16IJsonConvertibleE(ptr noundef nonnull align 8 dereferenceable(16) %3, ptr noundef nonnull align 8 dereferenceable(8) %1)
          to label %5 unwind label %29

5:                                                ; preds = %2
  %6 = load ptr, ptr @_ZTTNSt7__cxx1119basic_istringstreamIcSt11char_traitsIcESaIcEEE, align 8
  store ptr %6, ptr %3, align 8, !tbaa !4
  %7 = load ptr, ptr getelementptr inbounds nuw (i8, ptr @_ZTTNSt7__cxx1119basic_istringstreamIcSt11char_traitsIcESaIcEEE, i64 24), align 8
  %8 = getelementptr i8, ptr %6, i64 -24
  %9 = load i64, ptr %8, align 8
  %10 = getelementptr inbounds i8, ptr %3, i64 %9
  store ptr %7, ptr %10, align 8, !tbaa !4
  %11 = getelementptr inbounds nuw i8, ptr %3, i64 16
  store ptr getelementptr inbounds nuw inrange(-16, 112) (i8, ptr @_ZTVNSt7__cxx1115basic_stringbufIcSt11char_traitsIcESaIcEEE, i64 16), ptr %11, align 8, !tbaa !4
  %12 = getelementptr inbounds nuw i8, ptr %3, i64 88
  %13 = load ptr, ptr %12, align 8, !tbaa !20
  %14 = getelementptr inbounds nuw i8, ptr %3, i64 104
  %15 = icmp eq ptr %13, %14
  br i1 %15, label %_ZNKSt7__cxx1112basic_stringIcSt11char_traitsIcESaIcEE11_M_is_localEv.exit.thread.i.i.i.i.i, label %_ZNKSt7__cxx1112basic_stringIcSt11char_traitsIcESaIcEE11_M_is_localEv.exit.i.i.i.i.i

_ZNKSt7__cxx1112basic_stringIcSt11char_traitsIcESaIcEE11_M_is_localEv.exit.thread.i.i.i.i.i: ; preds = %5
  %16 = getelementptr inbounds nuw i8, ptr %3, i64 96
  %17 = load i64, ptr %16, align 8, !tbaa !24
  %18 = icmp ult i64 %17, 16
  call void @llvm.assume(i1 %18)
  br label %_ZNSt7__cxx1119basic_istringstreamIcSt11char_traitsIcESaIcEED1Ev.exit

_ZNKSt7__cxx1112basic_stringIcSt11char_traitsIcESaIcEE11_M_is_localEv.exit.i.i.i.i.i: ; preds = %5
  %19 = load i64, ptr %14, align 8, !tbaa !28
  %20 = add i64 %19, 1
  call void @_ZdlPvm(ptr noundef %13, i64 noundef %20) #29
  br label %_ZNSt7__cxx1119basic_istringstreamIcSt11char_traitsIcESaIcEED1Ev.exit

_ZNSt7__cxx1119basic_istringstreamIcSt11char_traitsIcESaIcEED1Ev.exit: ; preds = %_ZNKSt7__cxx1112basic_stringIcSt11char_traitsIcESaIcEE11_M_is_localEv.exit.thread.i.i.i.i.i, %_ZNKSt7__cxx1112basic_stringIcSt11char_traitsIcESaIcEE11_M_is_localEv.exit.i.i.i.i.i
  store ptr getelementptr inbounds nuw inrange(-16, 112) (i8, ptr @_ZTVSt15basic_streambufIcSt11char_traitsIcEE, i64 16), ptr %11, align 8, !tbaa !4
  %21 = getelementptr inbounds nuw i8, ptr %3, i64 72
  call void @_ZNSt6localeD1Ev(ptr noundef nonnull align 8 dereferenceable(8) %21) #27
  %22 = load ptr, ptr getelementptr inbounds nuw (i8, ptr @_ZTTNSt7__cxx1119basic_istringstreamIcSt11char_traitsIcESaIcEEE, i64 8), align 8
  store ptr %22, ptr %3, align 8, !tbaa !4
  %23 = load ptr, ptr getelementptr inbounds nuw (i8, ptr @_ZTTNSt7__cxx1119basic_istringstreamIcSt11char_traitsIcESaIcEEE, i64 16), align 8
  %24 = getelementptr i8, ptr %22, i64 -24
  %25 = load i64, ptr %24, align 8
  %26 = getelementptr inbounds i8, ptr %3, i64 %25
  store ptr %23, ptr %26, align 8, !tbaa !4
  %27 = getelementptr inbounds nuw i8, ptr %3, i64 8
  store i64 0, ptr %27, align 8, !tbaa !610
  %28 = getelementptr inbounds nuw i8, ptr %3, i64 120
  call void @_ZNSt8ios_baseD2Ev(ptr noundef nonnull align 8 dereferenceable(264) %28) #27
  call void @llvm.lifetime.end.p0(i64 384, ptr nonnull %3) #27
  ret i1 %4

29:                                               ; preds = %2
  %30 = landingpad { ptr, i32 }
          cleanup
  call void @_ZNSt7__cxx1119basic_istringstreamIcSt11char_traitsIcESaIcEED1Ev(ptr noundef nonnull align 8 dereferenceable(120) %3) #27
  call void @llvm.lifetime.end.p0(i64 384, ptr nonnull %3) #27
  resume { ptr, i32 } %30
}